; Function Attrs: mustprogress uwtable
define void @_ZN9grpc_core8channelz10SocketNode21RecordMessageReceivedEv(ptr noundef nonnull align 8 captures(none) dereferenceable(216) %0) local_unnamed_addr #3 align 2 {
  %2 = getelementptr inbounds nuw i8, ptr %0, i64 96
  %3 = atomicrmw add ptr %2, i64 1 monotonic, align 8
  %4 = getelementptr inbounds nuw i8, ptr %0, i64 136
  %5 = tail call noundef double @_Z21gpr_get_cycle_counterv()
  %6 = bitcast double %5 to i64
  store atomic i64 %6, ptr %4 monotonic, align 8
  ret void
}